target datalayout = "e-m:e-p270:32:32-p271:32:32-p272:64:64-i64:64-i128:128-f80:128-n8:16:32:64-S128"
target triple = "x86_64-pc-linux-gnu"

%struct.job_record = type { i32, ptr, ptr, ptr, ptr, i16, i32, i32, i32, ptr, i32, ptr, ptr, i16, ptr, double, i64, ptr, ptr, ptr, ptr, ptr, ptr, i32, ptr, i32, i64, i64, i32, i32, ptr, i16, i64, i64, i8, i32, ptr, ptr, ptr, ptr, ptr, ptr, ptr, ptr, i32, ptr, ptr, i32, ptr, i32, ptr, i32, ptr, i32, ptr, ptr, ptr, ptr, ptr, ptr, i32, i16, i64, ptr, ptr, ptr, ptr, %struct.acct_policy_limit_set_t, i16, ptr, ptr, ptr, ptr, ptr, i32, ptr, ptr, ptr, ptr, ptr, i32, i32, ptr, ptr, ptr, i16, ptr, ptr, i8, ptr, ptr, i64, i64, i8, i32, i32, i8, i32, ptr, i32, i64, i32, ptr, ptr, ptr, i8, i16, i64, i32, ptr, ptr, ptr, ptr, ptr, i16, i32, ptr, ptr, ptr, ptr, i32, ptr, i32, i16, i64, ptr, i32, i32, ptr, i64, ptr, ptr, i64, i32, i32, i64, i32, i32, ptr, ptr, ptr, ptr, ptr, ptr, ptr, ptr, ptr, ptr, ptr, ptr, i32, ptr, i16, i16, i16, i16, ptr, i32, i32, i8, i64 }
%struct.acct_policy_limit_set_t = type { i16, i16, ptr }
%struct.job_details_t = type { i32, ptr, i64, ptr, i32, ptr, i64, ptr, i16, i16, ptr, i16, i32, i32, i32, i16, ptr, i16, ptr, ptr, ptr, i16, ptr, ptr, ptr, ptr, i32, ptr, ptr, ptr, ptr, ptr, i32, i32, i32, ptr, ptr, i16, i32, i32, i32, i32, i32, i32, i16, i16, i32, i8, i8, i32, i32, i64, i64, i16, i32, ptr, ptr, i8, ptr, i32, ptr, i64, ptr, ptr, i16, i16, i16, i8, ptr, ptr, ptr, ptr, ptr, ptr, i64, i32, i32, i8, ptr, i16, ptr, ptr, i16 }
%struct.slurm_step_id_msg = type { i64, i32, i32, i32 }
%struct.slurm_cred_arg_t = type { %struct.slurm_step_id_msg, i32, i32, ptr, i16, ptr, ptr, ptr, i32, ptr, ptr, ptr, ptr, ptr, ptr, ptr, i16, i64, ptr, ptr, ptr, ptr, ptr, i32, i32, ptr, i32, i16, ptr, ptr, ptr, i16, ptr, i64, ptr, ptr, ptr, i16, ptr, ptr, ptr, ptr, i32, ptr, ptr }
%struct.kill_job_msg = type { ptr, ptr, i32, i32, i32, ptr, i32, i32, i32, ptr, ptr, i32, i64, %struct.slurm_step_id_msg, i64, ptr }

@.str.44 = private unnamed_addr constant [10 x i8] c"job_mgr.c\00", align 1
@__func__.create_kill_job_msg = private unnamed_addr constant [20 x i8] c"create_kill_job_msg\00", align 1

; Function Attrs: nounwind uwtable
define dso_local ptr @create_kill_job_msg(ptr noundef %0, i16 noundef zeroext %1) #0 {
  %3 = alloca ptr, align 8
  %4 = alloca i16, align 2
  %5 = alloca %struct.slurm_cred_arg_t, align 8
  %6 = alloca ptr, align 8
  store ptr %0, ptr %3, align 8
  store i16 %1, ptr %4, align 2
  call void @llvm.lifetime.start.p0(i64 352, ptr %5) #13
  call void @llvm.lifetime.start.p0(i64 8, ptr %6) #13
  %7 = call ptr @slurm_xcalloc(i64 noundef 1, i64 noundef 128, i1 noundef zeroext true, i1 noundef zeroext false, ptr noundef @.str.44, i32 noundef 15211, ptr noundef @__func__.create_kill_job_msg)
  store ptr %7, ptr %6, align 8
  %8 = load ptr, ptr %3, align 8
  call void @setup_cred_arg(ptr noundef %5, ptr noundef %8)
  %9 = load ptr, ptr %3, align 8
  %10 = getelementptr inbounds nuw %struct.job_record, ptr %9, i32 0, i32 53
  %11 = load i32, ptr %10, align 8
  %12 = getelementptr inbounds nuw %struct.slurm_cred_arg_t, ptr %5, i32 0, i32 0
  %13 = getelementptr inbounds nuw %struct.slurm_step_id_msg, ptr %12, i32 0, i32 1
  store i32 %11, ptr %13, align 8
  %14 = getelementptr inbounds nuw %struct.slurm_cred_arg_t, ptr %5, i32 0, i32 0
  %15 = getelementptr inbounds nuw %struct.slurm_step_id_msg, ptr %14, i32 0, i32 2
  store i32 -2, ptr %15, align 4
  %16 = getelementptr inbounds nuw %struct.slurm_cred_arg_t, ptr %5, i32 0, i32 0
  %17 = getelementptr inbounds nuw %struct.slurm_step_id_msg, ptr %16, i32 0, i32 3
  store i32 -2, ptr %17, align 8
  %18 = load i16, ptr %4, align 2
  %19 = call ptr @slurm_cred_create(ptr noundef %5, i1 noundef zeroext false, i16 noundef zeroext %18)
  %20 = load ptr, ptr %6, align 8
  %21 = getelementptr inbounds nuw %struct.kill_job_msg, ptr %20, i32 0, i32 0
  store ptr %19, ptr %21, align 8
  %22 = load ptr, ptr %3, align 8
  %23 = getelementptr inbounds nuw %struct.job_record, ptr %22, i32 0, i32 29
  %24 = load i32, ptr %23, align 4
  %25 = load ptr, ptr %6, align 8
  %26 = getelementptr inbounds nuw %struct.kill_job_msg, ptr %25, i32 0, i32 2
  store i32 %24, ptr %26, align 8
  %27 = load ptr, ptr %3, align 8
  %28 = getelementptr inbounds nuw %struct.job_record, ptr %27, i32 0, i32 125
  %29 = load ptr, ptr %28, align 8
  %30 = call ptr @xstrdup(ptr noundef %29)
  %31 = load ptr, ptr %6, align 8
  %32 = getelementptr inbounds nuw %struct.kill_job_msg, ptr %31, i32 0, i32 1
  store ptr %30, ptr %32, align 8
  %33 = load ptr, ptr %3, align 8
  %34 = getelementptr inbounds nuw %struct.job_record, ptr %33, i32 0, i32 35
  %35 = load i32, ptr %34, align 4
  %36 = load ptr, ptr %6, align 8
  %37 = getelementptr inbounds nuw %struct.kill_job_msg, ptr %36, i32 0, i32 3
  store i32 %35, ptr %37, align 4
  %38 = load ptr, ptr %3, align 8
  %39 = getelementptr inbounds nuw %struct.job_record, ptr %38, i32 0, i32 49
  %40 = load i32, ptr %39, align 8
  %41 = load ptr, ptr %6, align 8
  %42 = getelementptr inbounds nuw %struct.kill_job_msg, ptr %41, i32 0, i32 4
  store i32 %40, ptr %42, align 8
  %43 = load ptr, ptr %3, align 8
  %44 = getelementptr inbounds nuw %struct.job_record, ptr %43, i32 0, i32 43
  %45 = load ptr, ptr %44, align 8
  %46 = load ptr, ptr %3, align 8
  %47 = getelementptr inbounds nuw %struct.job_record, ptr %46, i32 0, i32 75
  %48 = load ptr, ptr %47, align 8
  %49 = call ptr @gres_g_prep_build_env(ptr noundef %45, ptr noundef %48)
  %50 = load ptr, ptr %6, align 8
  %51 = getelementptr inbounds nuw %struct.kill_job_msg, ptr %50, i32 0, i32 5
  store ptr %49, ptr %51, align 8
  %52 = load ptr, ptr %3, align 8
  %53 = getelementptr inbounds nuw %struct.job_record, ptr %52, i32 0, i32 60
  %54 = load i32, ptr %53, align 8
  %55 = load ptr, ptr %6, align 8
  %56 = getelementptr inbounds nuw %struct.kill_job_msg, ptr %55, i32 0, i32 6
  store i32 %54, ptr %56, align 8
  %57 = load ptr, ptr %3, align 8
  %58 = getelementptr inbounds nuw %struct.job_record, ptr %57, i32 0, i32 150
  %59 = load i32, ptr %58, align 8
  %60 = load ptr, ptr %6, align 8
  %61 = getelementptr inbounds nuw %struct.kill_job_msg, ptr %60, i32 0, i32 7
  store i32 %59, ptr %61, align 4
  %62 = load ptr, ptr %3, align 8
  %63 = getelementptr inbounds nuw %struct.job_record, ptr %62, i32 0, i32 47
  %64 = load i32, ptr %63, align 8
  %65 = load ptr, ptr %6, align 8
  %66 = getelementptr inbounds nuw %struct.kill_job_msg, ptr %65, i32 0, i32 8
  store i32 %64, ptr %66, align 8
  %67 = load ptr, ptr %3, align 8
  %68 = getelementptr inbounds nuw %struct.job_record, ptr %67, i32 0, i32 124
  %69 = load i64, ptr %68, align 8
  %70 = load ptr, ptr %6, align 8
  %71 = getelementptr inbounds nuw %struct.kill_job_msg, ptr %70, i32 0, i32 12
  store i64 %69, ptr %71, align 8
  %72 = load ptr, ptr %3, align 8
  %73 = getelementptr inbounds nuw %struct.job_record, ptr %72, i32 0, i32 53
  %74 = load i32, ptr %73, align 8
  %75 = load ptr, ptr %6, align 8
  %76 = getelementptr inbounds nuw %struct.kill_job_msg, ptr %75, i32 0, i32 13
  %77 = getelementptr inbounds nuw %struct.slurm_step_id_msg, ptr %76, i32 0, i32 1
  store i32 %74, ptr %77, align 8
  %78 = load ptr, ptr %6, align 8
  %79 = getelementptr inbounds nuw %struct.kill_job_msg, ptr %78, i32 0, i32 13
  %80 = getelementptr inbounds nuw %struct.slurm_step_id_msg, ptr %79, i32 0, i32 2
  store i32 -2, ptr %80, align 4
  %81 = load ptr, ptr %6, align 8
  %82 = getelementptr inbounds nuw %struct.kill_job_msg, ptr %81, i32 0, i32 13
  %83 = getelementptr inbounds nuw %struct.slurm_step_id_msg, ptr %82, i32 0, i32 3
  store i32 -2, ptr %83, align 8
  %84 = load ptr, ptr %3, align 8
  %85 = getelementptr inbounds nuw %struct.job_record, ptr %84, i32 0, i32 122
  %86 = load i32, ptr %85, align 8
  %87 = load ptr, ptr %3, align 8
  %88 = getelementptr inbounds nuw %struct.job_record, ptr %87, i32 0, i32 121
  %89 = load ptr, ptr %88, align 8
  %90 = call ptr @xduparray(i32 noundef %86, ptr noundef %89)
  %91 = load ptr, ptr %6, align 8
  %92 = getelementptr inbounds nuw %struct.kill_job_msg, ptr %91, i32 0, i32 10
  store ptr %90, ptr %92, align 8
  %93 = load ptr, ptr %3, align 8
  %94 = getelementptr inbounds nuw %struct.job_record, ptr %93, i32 0, i32 122
  %95 = load i32, ptr %94, align 8
  %96 = load ptr, ptr %6, align 8
  %97 = getelementptr inbounds nuw %struct.kill_job_msg, ptr %96, i32 0, i32 11
  store i32 %95, ptr %97, align 8
  %98 = call i64 @time(ptr noundef null) #13
  %99 = load ptr, ptr %6, align 8
  %100 = getelementptr inbounds nuw %struct.kill_job_msg, ptr %99, i32 0, i32 14
  store i64 %98, ptr %100, align 8
  %101 = load ptr, ptr %3, align 8
  %102 = getelementptr inbounds nuw %struct.job_record, ptr %101, i32 0, i32 30
  %103 = load ptr, ptr %102, align 8
  %104 = getelementptr inbounds nuw %struct.job_details_t, ptr %103, i32 0, i32 78
  %105 = load ptr, ptr %104, align 8
  %106 = call ptr @xstrdup(ptr noundef %105)
  %107 = load ptr, ptr %6, align 8
  %108 = getelementptr inbounds nuw %struct.kill_job_msg, ptr %107, i32 0, i32 15
  store ptr %106, ptr %108, align 8
  %109 = load ptr, ptr %6, align 8
  call void @llvm.lifetime.end.p0(i64 8, ptr %6) #13
  call void @llvm.lifetime.end.p0(i64 352, ptr %5) #13
  ret ptr %109
}