; Function Attrs: nounwind uwtable
define dso_local ptr @create_kill_job_msg(ptr noundef %0, i16 noundef zeroext %1) local_unnamed_addr #0 {
  %3 = alloca %struct.slurm_cred_arg_t, align 8
  call void @llvm.lifetime.start.p0(i64 352, ptr nonnull %3) #27
  %4 = tail call ptr @slurm_xcalloc(i64 noundef 1, i64 noundef 128, i1 noundef zeroext true, i1 noundef zeroext false, ptr noundef nonnull @.str.44, i32 noundef 15211, ptr noundef nonnull @__func__.create_kill_job_msg) #27
  call void @setup_cred_arg(ptr noundef nonnull %3, ptr noundef %0) #27
  %5 = getelementptr inbounds nuw i8, ptr %0, i64 392
  %6 = load i32, ptr %5, align 8
  %7 = getelementptr inbounds nuw i8, ptr %3, i64 8
  store i32 %6, ptr %7, align 8
  %8 = getelementptr inbounds nuw i8, ptr %3, i64 12
  store i32 -2, ptr %8, align 4
  %9 = getelementptr inbounds nuw i8, ptr %3, i64 16
  store i32 -2, ptr %9, align 8
  %10 = call ptr @slurm_cred_create(ptr noundef nonnull %3, i1 noundef zeroext false, i16 noundef zeroext %1) #27
  store ptr %10, ptr %4, align 8
  %11 = getelementptr inbounds nuw i8, ptr %0, i64 212
  %12 = load i32, ptr %11, align 4
  %13 = getelementptr inbounds nuw i8, ptr %4, i64 16
  store i32 %12, ptr %13, align 8
  %14 = getelementptr inbounds nuw i8, ptr %0, i64 920
  %15 = load ptr, ptr %14, align 8
  %16 = call ptr @xstrdup(ptr noundef %15) #27
  %17 = getelementptr inbounds nuw i8, ptr %4, i64 8
  store ptr %16, ptr %17, align 8
  %18 = getelementptr inbounds nuw i8, ptr %0, i64 252
  %19 = load i32, ptr %18, align 4
  %20 = getelementptr inbounds nuw i8, ptr %4, i64 20
  store i32 %19, ptr %20, align 4
  %21 = getelementptr inbounds nuw i8, ptr %0, i64 360
  %22 = load i32, ptr %21, align 8
  %23 = getelementptr inbounds nuw i8, ptr %4, i64 24
  store i32 %22, ptr %23, align 8
  %24 = getelementptr inbounds nuw i8, ptr %0, i64 312
  %25 = load ptr, ptr %24, align 8
  %26 = getelementptr inbounds nuw i8, ptr %0, i64 568
  %27 = load ptr, ptr %26, align 8
  %28 = call ptr @gres_g_prep_build_env(ptr noundef %25, ptr noundef %27) #27
  %29 = getelementptr inbounds nuw i8, ptr %4, i64 32
  store ptr %28, ptr %29, align 8
  %30 = getelementptr inbounds nuw i8, ptr %0, i64 448
  %31 = load i32, ptr %30, align 8
  %32 = getelementptr inbounds nuw i8, ptr %4, i64 40
  store i32 %31, ptr %32, align 8
  %33 = getelementptr inbounds nuw i8, ptr %0, i64 1096
  %34 = load i32, ptr %33, align 8
  %35 = getelementptr inbounds nuw i8, ptr %4, i64 44
  store i32 %34, ptr %35, align 4
  %36 = getelementptr inbounds nuw i8, ptr %0, i64 344
  %37 = load i32, ptr %36, align 8
  %38 = getelementptr inbounds nuw i8, ptr %4, i64 48
  store i32 %37, ptr %38, align 8
  %39 = getelementptr inbounds nuw i8, ptr %0, i64 912
  %40 = load i64, ptr %39, align 8
  %41 = getelementptr inbounds nuw i8, ptr %4, i64 80
  store i64 %40, ptr %41, align 8
  %42 = load i32, ptr %5, align 8
  %43 = getelementptr inbounds nuw i8, ptr %4, i64 96
  store i32 %42, ptr %43, align 8
  %44 = getelementptr inbounds nuw i8, ptr %4, i64 100
  store i32 -2, ptr %44, align 4
  %45 = getelementptr inbounds nuw i8, ptr %4, i64 104
  store i32 -2, ptr %45, align 8
  %46 = getelementptr inbounds nuw i8, ptr %0, i64 904
  %47 = load i32, ptr %46, align 8
  %48 = getelementptr inbounds nuw i8, ptr %0, i64 896
  %49 = load ptr, ptr %48, align 8
  %50 = call ptr @xduparray(i32 noundef %47, ptr noundef %49) #27
  %51 = getelementptr inbounds nuw i8, ptr %4, i64 64
  store ptr %50, ptr %51, align 8
  %52 = load i32, ptr %46, align 8
  %53 = getelementptr inbounds nuw i8, ptr %4, i64 72
  store i32 %52, ptr %53, align 8
  %54 = call i64 @time(ptr noundef null) #27
  %55 = getelementptr inbounds nuw i8, ptr %4, i64 112
  store i64 %54, ptr %55, align 8
  %56 = getelementptr inbounds nuw i8, ptr %0, i64 216
  %57 = load ptr, ptr %56, align 8
  %58 = getelementptr inbounds nuw i8, ptr %57, i64 488
  %59 = load ptr, ptr %58, align 8
  %60 = call ptr @xstrdup(ptr noundef %59) #27
  %61 = getelementptr inbounds nuw i8, ptr %4, i64 120
  store ptr %60, ptr %61, align 8
  call void @llvm.lifetime.end.p0(i64 352, ptr nonnull %3) #27
  ret ptr %4
}